#include <math.h>
#include <stdio.h>
#include <stdlib.h>
#include <string.h>

void main()
{
	char a[100],b[100];
	int i,j,m,n,t=0,r=0;
	scanf("%s",a);
	scanf("%s",b);
	m=strlen(a);
	n=strlen(b);
	for(i=0;i<m;i++)
	{
		for(j=0;j<n;j++)
		{
			if(a[i]==b[j])
			{
				b[j]=0;
				a[i]=1;
				t++;
				r++;
			}
		}
	}
	
	if(t==n&&r==m)
		printf("YES");
	else printf("NO");
}